target datalayout = "e-m:e-p270:32:32-p271:32:32-p272:64:64-i64:64-i128:128-f80:128-n8:16:32:64-S128"
target triple = "x86_64-pc-linux-gnu"

%struct._object = type { %union.anon, ptr }
%union.anon = type { i64 }
%struct.PySocketSockObject = type { %struct._object, i32, i32, i32, i32, ptr, i64, ptr }

@PyExc_OSError = external global ptr, align 8
@_Py_NoneStruct = external global %struct._object, align 8

; Function Attrs: inlinehint nounwind uwtable
define internal i32 @get_sock_fd(ptr noundef %0) #3 {
  %2 = alloca ptr, align 8
  store ptr %0, ptr %2, align 8, !tbaa !8
  %3 = load ptr, ptr %2, align 8, !tbaa !8
  %4 = getelementptr inbounds nuw %struct.PySocketSockObject, ptr %3, i32 0, i32 1
  %5 = load i32, ptr %4, align 8, !tbaa !113
  ret i32 %5
}

; Function Attrs: nounwind uwtable
define internal i32 @internal_setblocking(ptr noundef %0, i32 noundef %1) #0 {
  %3 = alloca ptr, align 8
  %4 = alloca i32, align 4
  %5 = alloca i32, align 4
  %6 = alloca ptr, align 8
  store ptr %0, ptr %3, align 8, !tbaa !8
  store i32 %1, ptr %4, align 4, !tbaa !15
  call void @llvm.lifetime.start.p0(i64 4, ptr %5) #10
  store i32 -1, ptr %5, align 4, !tbaa !15
  call void @llvm.lifetime.start.p0(i64 8, ptr %6) #10
  %7 = call ptr @PyEval_SaveThread()
  store ptr %7, ptr %6, align 8, !tbaa !26
  %8 = load i32, ptr %4, align 4, !tbaa !15
  %9 = icmp ne i32 %8, 0
  %10 = xor i1 %9, true
  %11 = zext i1 %10 to i32
  store i32 %11, ptr %4, align 4, !tbaa !15
  %12 = load ptr, ptr %3, align 8, !tbaa !8
  %13 = call i32 @get_sock_fd(ptr noundef %12)
  %14 = call i32 (i32, i64, ...) @ioctl(i32 noundef %13, i64 noundef 21537, ptr noundef %4) #10
  %15 = icmp eq i32 %14, -1
  br i1 %15, label %16, label %17

16:                                               ; preds = %2
  br label %18

17:                                               ; preds = %2
  store i32 0, ptr %5, align 4, !tbaa !15
  br label %18

18:                                               ; preds = %17, %16
  %19 = load ptr, ptr %6, align 8, !tbaa !26
  call void @PyEval_RestoreThread(ptr noundef %19)
  call void @llvm.lifetime.end.p0(i64 8, ptr %6) #10
  %20 = load i32, ptr %5, align 4, !tbaa !15
  %21 = icmp ne i32 %20, 0
  br i1 %21, label %22, label %25

22:                                               ; preds = %18
  %23 = load ptr, ptr @PyExc_OSError, align 8, !tbaa !3
  %24 = call ptr @PyErr_SetFromErrno(ptr noundef %23)
  br label %25

25:                                               ; preds = %22, %18
  %26 = load i32, ptr %5, align 4, !tbaa !15
  call void @llvm.lifetime.end.p0(i64 4, ptr %5) #10
  ret i32 %26
}

; Function Attrs: nounwind uwtable
define internal ptr @sock_setblocking(ptr noundef %0, ptr noundef %1) #0 {
  %3 = alloca ptr, align 8
  %4 = alloca ptr, align 8
  %5 = alloca ptr, align 8
  %6 = alloca i64, align 8
  %7 = alloca i32, align 4
  %8 = alloca ptr, align 8
  store ptr %0, ptr %4, align 8, !tbaa !3
  store ptr %1, ptr %5, align 8, !tbaa !3
  call void @llvm.lifetime.start.p0(i64 8, ptr %6) #10
  %9 = load ptr, ptr %5, align 8, !tbaa !3
  %10 = call i32 @PyObject_IsTrue(ptr noundef %9)
  %11 = sext i32 %10 to i64
  store i64 %11, ptr %6, align 8, !tbaa !52
  %12 = load i64, ptr %6, align 8, !tbaa !52
  %13 = icmp slt i64 %12, 0
  br i1 %13, label %14, label %15

14:                                               ; preds = %2
  store ptr null, ptr %3, align 8
  store i32 1, ptr %7, align 4
  br label %31

15:                                               ; preds = %2
  call void @llvm.lifetime.start.p0(i64 8, ptr %8) #10
  %16 = load ptr, ptr %4, align 8, !tbaa !3
  store ptr %16, ptr %8, align 8, !tbaa !8
  %17 = load i64, ptr %6, align 8, !tbaa !52
  %18 = icmp ne i64 %17, 0
  %19 = select i1 %18, i32 -1, i32 0
  %20 = call i64 @_PyTime_FromSeconds(i32 noundef %19)
  %21 = load ptr, ptr %8, align 8, !tbaa !8
  %22 = getelementptr inbounds nuw %struct.PySocketSockObject, ptr %21, i32 0, i32 6
  store i64 %20, ptr %22, align 8, !tbaa !111
  %23 = load ptr, ptr %8, align 8, !tbaa !8
  %24 = load i64, ptr %6, align 8, !tbaa !52
  %25 = trunc i64 %24 to i32
  %26 = call i32 @internal_setblocking(ptr noundef %23, i32 noundef %25)
  %27 = icmp eq i32 %26, -1
  br i1 %27, label %28, label %29

28:                                               ; preds = %15
  store ptr null, ptr %3, align 8
  store i32 1, ptr %7, align 4
  br label %30

29:                                               ; preds = %15
  store ptr @_Py_NoneStruct, ptr %3, align 8
  store i32 1, ptr %7, align 4
  br label %30

30:                                               ; preds = %29, %28
  call void @llvm.lifetime.end.p0(i64 8, ptr %8) #10
  br label %31

31:                                               ; preds = %30, %14
  call void @llvm.lifetime.end.p0(i64 8, ptr %6) #10
  %32 = load ptr, ptr %3, align 8
  ret ptr %32
}