; Function Attrs: nounwind uwtable
define internal noundef ptr @sock_setblocking(ptr noundef captures(none) %0, ptr noundef %1) #0 {
  %3 = alloca i32, align 4
  %4 = tail call i32 @PyObject_IsTrue(ptr noundef %1) #13
  %5 = icmp slt i32 %4, 0
  br i1 %5, label %17, label %6

6:                                                ; preds = %2
  %.not = icmp ne i32 %4, 0
  %7 = sext i1 %.not to i32
  %8 = tail call i64 @_PyTime_FromSeconds(i32 noundef %7) #13
  %9 = getelementptr inbounds nuw i8, ptr %0, i64 40
  store i64 %8, ptr %9, align 8, !tbaa !90
  call void @llvm.lifetime.start.p0(i64 4, ptr nonnull %3)
  %10 = tail call ptr @PyEval_SaveThread() #13
  %.not.i = icmp eq i32 %4, 0
  %11 = zext i1 %.not.i to i32
  store i32 %11, ptr %3, align 4, !tbaa !35
  %12 = getelementptr i8, ptr %0, i64 16
  %.val.i = load i32, ptr %12, align 8, !tbaa !83
  %13 = call i32 (i32, i64, ...) @ioctl(i32 noundef %.val.i, i64 noundef 21537, ptr noundef nonnull %3) #13
  %.not4.i = icmp eq i32 %13, -1
  call void @PyEval_RestoreThread(ptr noundef %10) #13
  br i1 %.not4.i, label %14, label %internal_setblocking.exit

14:                                               ; preds = %6
  %15 = load ptr, ptr @PyExc_OSError, align 8, !tbaa !19
  %16 = call ptr @PyErr_SetFromErrno(ptr noundef %15) #13
  br label %internal_setblocking.exit

internal_setblocking.exit:                        ; preds = %6, %14
  %._Py_NoneStruct = phi ptr [ @_Py_NoneStruct, %6 ], [ null, %14 ]
  call void @llvm.lifetime.end.p0(i64 4, ptr nonnull %3)
  br label %17

17:                                               ; preds = %2, %internal_setblocking.exit
  %.0 = phi ptr [ %._Py_NoneStruct, %internal_setblocking.exit ], [ null, %2 ]
  ret ptr %.0
}